target datalayout = "e-m:e-p270:32:32-p271:32:32-p272:64:64-i64:64-i128:128-f80:128-n8:16:32:64-S128"
target triple = "x86_64-pc-linux-gnu"

%struct.AVCodecContext = type { ptr, i32, i32, ptr, i32, i32, ptr, ptr, ptr, i64, i32, i32, ptr, i32, %struct.AVRational, %struct.AVRational, %struct.AVRational, i32, i32, i32, i32, i32, %struct.AVRational, i32, i32, i32, i32, i32, i32, i32, i32, i32, i32, i32, ptr, ptr, i32, float, float, float, float, float, float, float, float, float, i32, i32, i32, i32, i32, i32, i32, i32, i32, i32, i32, i32, ptr, ptr, ptr, i32, i32, i32, i32, i32, i32, i32, i32, i32, i32, %struct.AVChannelLayout, i32, i32, i32, i32, i32, i32, i32, i32, ptr, i32, i32, i32, float, float, i32, i32, i32, i32, i32, ptr, i64, i64, float, float, i32, i32, ptr, ptr, i32, i32, i32, i32, i32, ptr, ptr, ptr, ptr, i32, i32, [8 x i64], i32, i32, i32, i32, i32, i32, i32, ptr, ptr, i32, i32, i32, i32, i32, i32, i32, i32, i32, i32, ptr, ptr, i32, i32, ptr, ptr, ptr, ptr, i32, i32, i64, i32, i32, i64, ptr, i64, ptr, i32, ptr, i32 }
%struct.AVRational = type { i32, i32 }
%struct.AVChannelLayout = type { i32, i32, %union.anon.0, ptr }
%union.anon.0 = type { i64 }
%struct.MPADecodeContext = type { i32, i32, i32, i32, i32, i32, i32, i32, i32, i32, [1048 x i8], i32, i32, i32, %struct.GetBitContext, %struct.GetBitContext, [2 x [1024 x i32]], [2 x i32], [8 x i8], [2 x [36 x [32 x i32]]], [2 x [576 x i32]], [2 x [2 x %struct.GranuleDef]], i32, i32, i32, ptr, %struct.MPADSPContext, ptr, ptr, i32 }
%struct.GetBitContext = type { ptr, ptr, i32, i32, i32 }
%struct.GranuleDef = type { i8, i32, i32, i32, i32, i8, i8, [3 x i32], [3 x i32], i8, i8, [3 x i32], i32, i32, i32, [40 x i8], [12 x i8], [576 x i32] }
%struct.MPADSPContext = type { ptr, ptr, ptr, ptr, ptr, ptr }
%struct.AVPacket = type { ptr, i64, i64, ptr, i32, i32, i32, ptr, i32, i64, i64, ptr, ptr, %struct.AVRational }

@.str.19 = private unnamed_addr constant [40 x i8] c"Error while decoding MPEG audio frame.\0A\00", align 1
@.str.32 = private unnamed_addr constant [21 x i8] c"Packet is too small\0A\00", align 1
@.str.33 = private unnamed_addr constant [22 x i8] c"Invalid frame header\0A\00", align 1

; Function Attrs: alwaysinline nounwind willreturn memory(none) uwtable
define internal i32 @av_bswap32(i32 noundef %0) #6 {
  %2 = alloca i32, align 4
  store i32 %0, ptr %2, align 4, !tbaa !50
  %3 = load i32, ptr %2, align 4, !tbaa !50
  %4 = shl i32 %3, 8
  %5 = and i32 %4, 65280
  %6 = load i32, ptr %2, align 4, !tbaa !50
  %7 = lshr i32 %6, 8
  %8 = and i32 %7, 255
  %9 = or i32 %5, %8
  %10 = shl i32 %9, 16
  %11 = load i32, ptr %2, align 4, !tbaa !50
  %12 = lshr i32 %11, 16
  %13 = shl i32 %12, 8
  %14 = and i32 %13, 65280
  %15 = load i32, ptr %2, align 4, !tbaa !50
  %16 = lshr i32 %15, 16
  %17 = lshr i32 %16, 8
  %18 = and i32 %17, 255
  %19 = or i32 %14, %18
  %20 = or i32 %10, %19
  ret i32 %20
}

; Function Attrs: nounwind uwtable
define internal i32 @decode_frame_adu(ptr noundef %0, ptr noundef %1, ptr noundef %2, ptr noundef %3) #1 {
  %5 = alloca i32, align 4
  %6 = alloca ptr, align 8
  %7 = alloca ptr, align 8
  %8 = alloca ptr, align 8
  %9 = alloca ptr, align 8
  %10 = alloca ptr, align 8
  %11 = alloca i32, align 4
  %12 = alloca ptr, align 8
  %13 = alloca i32, align 4
  %14 = alloca i32, align 4
  %15 = alloca i32, align 4
  %16 = alloca i32, align 4
  %17 = alloca %struct.AVChannelLayout, align 8
  %18 = alloca %struct.AVChannelLayout, align 8
  store ptr %0, ptr %6, align 8, !tbaa !4
  store ptr %1, ptr %7, align 8, !tbaa !42
  store ptr %2, ptr %8, align 8, !tbaa !43
  store ptr %3, ptr %9, align 8, !tbaa !44
  call void @llvm.lifetime.start.p0(i64 8, ptr %10) #13
  %19 = load ptr, ptr %9, align 8, !tbaa !44
  %20 = getelementptr inbounds nuw %struct.AVPacket, ptr %19, i32 0, i32 3
  %21 = load ptr, ptr %20, align 8, !tbaa !46
  store ptr %21, ptr %10, align 8, !tbaa !48
  call void @llvm.lifetime.start.p0(i64 4, ptr %11) #13
  %22 = load ptr, ptr %9, align 8, !tbaa !44
  %23 = getelementptr inbounds nuw %struct.AVPacket, ptr %22, i32 0, i32 4
  %24 = load i32, ptr %23, align 8, !tbaa !49
  store i32 %24, ptr %11, align 4, !tbaa !50
  call void @llvm.lifetime.start.p0(i64 8, ptr %12) #13
  %25 = load ptr, ptr %6, align 8, !tbaa !4
  %26 = getelementptr inbounds nuw %struct.AVCodecContext, ptr %25, i32 0, i32 6
  %27 = load ptr, ptr %26, align 8, !tbaa !9
  store ptr %27, ptr %12, align 8, !tbaa !29
  call void @llvm.lifetime.start.p0(i64 4, ptr %13) #13
  call void @llvm.lifetime.start.p0(i64 4, ptr %14) #13
  call void @llvm.lifetime.start.p0(i64 4, ptr %15) #13
  %28 = load i32, ptr %11, align 4, !tbaa !50
  store i32 %28, ptr %14, align 4, !tbaa !50
  %29 = load i32, ptr %11, align 4, !tbaa !50
  %30 = icmp slt i32 %29, 4
  br i1 %30, label %31, label %33

31:                                               ; preds = %4
  %32 = load ptr, ptr %6, align 8, !tbaa !4
  call void (ptr, i32, ptr, ...) @av_log(ptr noundef %32, i32 noundef 16, ptr noundef @.str.32)
  store i32 -1094995529, ptr %5, align 4
  store i32 1, ptr %16, align 4
  br label %105

33:                                               ; preds = %4
  %34 = load i32, ptr %14, align 4, !tbaa !50
  %35 = icmp sgt i32 %34, 1792
  br i1 %35, label %36, label %37

36:                                               ; preds = %33
  store i32 1792, ptr %14, align 4, !tbaa !50
  br label %37

37:                                               ; preds = %36, %33
  %38 = load ptr, ptr %10, align 8, !tbaa !48
  %39 = load i32, ptr %38, align 1, !tbaa !51
  %40 = call i32 @av_bswap32(i32 noundef %39) #14
  %41 = or i32 %40, -2097152
  store i32 %41, ptr %13, align 4, !tbaa !50
  %42 = load ptr, ptr %12, align 8, !tbaa !29
  %43 = load i32, ptr %13, align 4, !tbaa !50
  %44 = call i32 @avpriv_mpegaudio_decode_header(ptr noundef %42, i32 noundef %43)
  store i32 %44, ptr %15, align 4, !tbaa !50
  %45 = load i32, ptr %15, align 4, !tbaa !50
  %46 = icmp slt i32 %45, 0
  br i1 %46, label %47, label %50

47:                                               ; preds = %37
  %48 = load ptr, ptr %6, align 8, !tbaa !4
  call void (ptr, i32, ptr, ...) @av_log(ptr noundef %48, i32 noundef 16, ptr noundef @.str.33)
  %49 = load i32, ptr %15, align 4, !tbaa !50
  store i32 %49, ptr %5, align 4
  store i32 1, ptr %16, align 4
  br label %105

50:                                               ; preds = %37
  %51 = load ptr, ptr %12, align 8, !tbaa !29
  %52 = getelementptr inbounds nuw %struct.MPADecodeContext, ptr %51, i32 0, i32 3
  %53 = load i32, ptr %52, align 4, !tbaa !70
  %54 = load ptr, ptr %6, align 8, !tbaa !4
  %55 = getelementptr inbounds nuw %struct.AVCodecContext, ptr %54, i32 0, i32 69
  store i32 %53, ptr %55, align 8, !tbaa !71
  %56 = load ptr, ptr %6, align 8, !tbaa !4
  %57 = getelementptr inbounds nuw %struct.AVCodecContext, ptr %56, i32 0, i32 71
  call void @av_channel_layout_uninit(ptr noundef %57)
  %58 = load ptr, ptr %6, align 8, !tbaa !4
  %59 = getelementptr inbounds nuw %struct.AVCodecContext, ptr %58, i32 0, i32 71
  %60 = load ptr, ptr %12, align 8, !tbaa !29
  %61 = getelementptr inbounds nuw %struct.MPADecodeContext, ptr %60, i32 0, i32 6
  %62 = load i32, ptr %61, align 8, !tbaa !55
  %63 = icmp eq i32 %62, 1
  br i1 %63, label %64, label %69

64:                                               ; preds = %50
  %65 = getelementptr inbounds nuw %struct.AVChannelLayout, ptr %17, i32 0, i32 0
  store i32 1, ptr %65, align 8, !tbaa !56
  %66 = getelementptr inbounds nuw %struct.AVChannelLayout, ptr %17, i32 0, i32 1
  store i32 1, ptr %66, align 4, !tbaa !57
  %67 = getelementptr inbounds nuw %struct.AVChannelLayout, ptr %17, i32 0, i32 2
  store i64 4, ptr %67, align 8, !tbaa !51
  %68 = getelementptr inbounds nuw %struct.AVChannelLayout, ptr %17, i32 0, i32 3
  store ptr null, ptr %68, align 8, !tbaa !58
  call void @llvm.memcpy.p0.p0.i64(ptr align 8 %59, ptr align 8 %17, i64 24, i1 false), !tbaa.struct !59
  br label %74

69:                                               ; preds = %50
  %70 = getelementptr inbounds nuw %struct.AVChannelLayout, ptr %18, i32 0, i32 0
  store i32 1, ptr %70, align 8, !tbaa !56
  %71 = getelementptr inbounds nuw %struct.AVChannelLayout, ptr %18, i32 0, i32 1
  store i32 2, ptr %71, align 4, !tbaa !57
  %72 = getelementptr inbounds nuw %struct.AVChannelLayout, ptr %18, i32 0, i32 2
  store i64 3, ptr %72, align 8, !tbaa !51
  %73 = getelementptr inbounds nuw %struct.AVChannelLayout, ptr %18, i32 0, i32 3
  store ptr null, ptr %73, align 8, !tbaa !58
  call void @llvm.memcpy.p0.p0.i64(ptr align 8 %59, ptr align 8 %18, i64 24, i1 false), !tbaa.struct !59
  br label %74

74:                                               ; preds = %69, %64
  %75 = load ptr, ptr %6, align 8, !tbaa !4
  %76 = getelementptr inbounds nuw %struct.AVCodecContext, ptr %75, i32 0, i32 9
  %77 = load i64, ptr %76, align 8, !tbaa !61
  %78 = icmp ne i64 %77, 0
  br i1 %78, label %86, label %79

79:                                               ; preds = %74
  %80 = load ptr, ptr %12, align 8, !tbaa !29
  %81 = getelementptr inbounds nuw %struct.MPADecodeContext, ptr %80, i32 0, i32 5
  %82 = load i32, ptr %81, align 4, !tbaa !62
  %83 = sext i32 %82 to i64
  %84 = load ptr, ptr %6, align 8, !tbaa !4
  %85 = getelementptr inbounds nuw %struct.AVCodecContext, ptr %84, i32 0, i32 9
  store i64 %83, ptr %85, align 8, !tbaa !61
  br label %86

86:                                               ; preds = %79, %74
  %87 = load i32, ptr %14, align 4, !tbaa !50
  %88 = load ptr, ptr %12, align 8, !tbaa !29
  %89 = getelementptr inbounds nuw %struct.MPADecodeContext, ptr %88, i32 0, i32 0
  store i32 %87, ptr %89, align 16, !tbaa !54
  %90 = load ptr, ptr %7, align 8, !tbaa !42
  %91 = load ptr, ptr %12, align 8, !tbaa !29
  %92 = getelementptr inbounds nuw %struct.MPADecodeContext, ptr %91, i32 0, i32 28
  store ptr %90, ptr %92, align 16, !tbaa !63
  %93 = load ptr, ptr %12, align 8, !tbaa !29
  %94 = load ptr, ptr %10, align 8, !tbaa !48
  %95 = load i32, ptr %11, align 4, !tbaa !50
  %96 = call i32 @mp_decode_frame(ptr noundef %93, ptr noundef null, ptr noundef %94, i32 noundef %95)
  store i32 %96, ptr %15, align 4, !tbaa !50
  %97 = load i32, ptr %15, align 4, !tbaa !50
  %98 = icmp slt i32 %97, 0
  br i1 %98, label %99, label %102

99:                                               ; preds = %86
  %100 = load ptr, ptr %6, align 8, !tbaa !4
  call void (ptr, i32, ptr, ...) @av_log(ptr noundef %100, i32 noundef 16, ptr noundef @.str.19)
  %101 = load i32, ptr %15, align 4, !tbaa !50
  store i32 %101, ptr %5, align 4
  store i32 1, ptr %16, align 4
  br label %105

102:                                              ; preds = %86
  %103 = load ptr, ptr %8, align 8, !tbaa !43
  store i32 1, ptr %103, align 4, !tbaa !50
  %104 = load i32, ptr %11, align 4, !tbaa !50
  store i32 %104, ptr %5, align 4
  store i32 1, ptr %16, align 4
  br label %105

105:                                              ; preds = %102, %99, %47, %31
  call void @llvm.lifetime.end.p0(i64 4, ptr %15) #13
  call void @llvm.lifetime.end.p0(i64 4, ptr %14) #13
  call void @llvm.lifetime.end.p0(i64 4, ptr %13) #13
  call void @llvm.lifetime.end.p0(i64 8, ptr %12) #13
  call void @llvm.lifetime.end.p0(i64 4, ptr %11) #13
  call void @llvm.lifetime.end.p0(i64 8, ptr %10) #13
  %106 = load i32, ptr %5, align 4
  ret i32 %106
}