; Function Attrs: nounwind uwtable
define internal range(i32 4, 0) i32 @decode_frame_adu(ptr noundef %0, ptr noundef %1, ptr noundef writeonly captures(none) %2, ptr noundef readonly captures(none) %3) #1 {
  %5 = getelementptr inbounds nuw i8, ptr %3, i64 24
  %6 = load ptr, ptr %5, align 8, !tbaa !41
  %7 = getelementptr inbounds nuw i8, ptr %3, i64 32
  %8 = load i32, ptr %7, align 8, !tbaa !39
  %9 = getelementptr inbounds nuw i8, ptr %0, i64 32
  %10 = load ptr, ptr %9, align 8, !tbaa !4
  %11 = icmp slt i32 %8, 4
  br i1 %11, label %12, label %13

12:                                               ; preds = %4
  tail call void (ptr, i32, ptr, ...) @av_log(ptr noundef nonnull %0, i32 noundef 16, ptr noundef nonnull @.str.32) #14
  br label %44

13:                                               ; preds = %4
  %14 = tail call i32 @llvm.umin.i32(i32 %8, i32 1792)
  %15 = load i32, ptr %6, align 1, !tbaa !42
  %16 = or i32 %15, 57599
  %17 = tail call i32 @llvm.bswap.i32(i32 %16)
  %18 = tail call i32 @avpriv_mpegaudio_decode_header(ptr noundef %10, i32 noundef %17) #14
  %19 = icmp slt i32 %18, 0
  br i1 %19, label %20, label %21

20:                                               ; preds = %13
  tail call void (ptr, i32, ptr, ...) @av_log(ptr noundef nonnull %0, i32 noundef 16, ptr noundef nonnull @.str.33) #14
  br label %44

21:                                               ; preds = %13
  %22 = getelementptr inbounds nuw i8, ptr %10, i64 12
  %23 = load i32, ptr %22, align 4, !tbaa !58
  %24 = getelementptr inbounds nuw i8, ptr %0, i64 344
  store i32 %23, ptr %24, align 8, !tbaa !59
  %25 = getelementptr inbounds nuw i8, ptr %0, i64 352
  tail call void @av_channel_layout_uninit(ptr noundef nonnull %25) #14
  %26 = getelementptr inbounds nuw i8, ptr %10, i64 24
  %27 = load i32, ptr %26, align 8, !tbaa !46
  %28 = icmp eq i32 %27, 1
  %spec.select = select i1 %28, i32 1, i32 2
  %spec.select41 = select i1 %28, i64 4, i64 3
  store i32 1, ptr %25, align 8, !tbaa !47
  %29 = getelementptr inbounds nuw i8, ptr %0, i64 356
  store i32 %spec.select, ptr %29, align 4, !tbaa !47
  %30 = getelementptr inbounds nuw i8, ptr %0, i64 360
  store i64 %spec.select41, ptr %30, align 8, !tbaa !42
  %31 = getelementptr inbounds nuw i8, ptr %0, i64 368
  store ptr null, ptr %31, align 8, !tbaa !48
  %32 = getelementptr inbounds nuw i8, ptr %0, i64 56
  %33 = load i64, ptr %32, align 8, !tbaa !49
  %.not = icmp eq i64 %33, 0
  br i1 %.not, label %34, label %38

34:                                               ; preds = %21
  %35 = getelementptr inbounds nuw i8, ptr %10, i64 20
  %36 = load i32, ptr %35, align 4, !tbaa !50
  %37 = sext i32 %36 to i64
  store i64 %37, ptr %32, align 8, !tbaa !49
  br label %38

38:                                               ; preds = %34, %21
  store i32 %14, ptr %10, align 16, !tbaa !45
  %39 = getelementptr inbounds nuw i8, ptr %10, i64 33008
  store ptr %1, ptr %39, align 16, !tbaa !51
  %40 = tail call fastcc i32 @mp_decode_frame(ptr noundef nonnull %10, ptr noundef null, ptr noundef nonnull %6, i32 noundef %8)
  %41 = icmp slt i32 %40, 0
  br i1 %41, label %42, label %43

42:                                               ; preds = %38
  tail call void (ptr, i32, ptr, ...) @av_log(ptr noundef nonnull %0, i32 noundef 16, ptr noundef nonnull @.str.19) #14
  br label %44

43:                                               ; preds = %38
  store i32 1, ptr %2, align 4, !tbaa !47
  br label %44

44:                                               ; preds = %43, %42, %20, %12
  %.0 = phi i32 [ -1094995529, %12 ], [ %18, %20 ], [ %40, %42 ], [ %8, %43 ]
  ret i32 %.0
}